
CH_13_code_6.elf:     file format elf32-avr

Sections:
Idx Name          Size      VMA       LMA       File off  Algn
  0 .text         000000d0  00000000  00000000  00000054  2**1
                  CONTENTS, ALLOC, LOAD, READONLY, CODE
  1 .comment      00000030  00000000  00000000  00000124  2**0
                  CONTENTS, READONLY
  2 .debug_aranges 00000038  00000000  00000000  00000154  2**0
                  CONTENTS, READONLY, DEBUGGING
  3 .debug_info   000000dc  00000000  00000000  0000018c  2**0
                  CONTENTS, READONLY, DEBUGGING
  4 .debug_abbrev 0000008e  00000000  00000000  00000268  2**0
                  CONTENTS, READONLY, DEBUGGING
  5 .debug_line   000000ef  00000000  00000000  000002f6  2**0
                  CONTENTS, READONLY, DEBUGGING
  6 .debug_frame  00000064  00000000  00000000  000003e8  2**2
                  CONTENTS, READONLY, DEBUGGING
  7 .debug_str    00000144  00000000  00000000  0000044c  2**0
                  CONTENTS, READONLY, DEBUGGING
  8 .debug_loc    0000003c  00000000  00000000  00000590  2**0
                  CONTENTS, READONLY, DEBUGGING
  9 .debug_ranges 00000028  00000000  00000000  000005cc  2**0
                  CONTENTS, READONLY, DEBUGGING

Disassembly of section .text:

00000000 <__vectors>:
   0:	0c 94 34 00 	jmp	0x68	; 0x68 <__ctors_end>
   4:	0c 94 40 00 	jmp	0x80	; 0x80 <__vector_1>
   8:	0c 94 3e 00 	jmp	0x7c	; 0x7c <__bad_interrupt>
   c:	0c 94 3e 00 	jmp	0x7c	; 0x7c <__bad_interrupt>
  10:	0c 94 3e 00 	jmp	0x7c	; 0x7c <__bad_interrupt>
  14:	0c 94 3e 00 	jmp	0x7c	; 0x7c <__bad_interrupt>
  18:	0c 94 3e 00 	jmp	0x7c	; 0x7c <__bad_interrupt>
  1c:	0c 94 3e 00 	jmp	0x7c	; 0x7c <__bad_interrupt>
  20:	0c 94 3e 00 	jmp	0x7c	; 0x7c <__bad_interrupt>
  24:	0c 94 3e 00 	jmp	0x7c	; 0x7c <__bad_interrupt>
  28:	0c 94 3e 00 	jmp	0x7c	; 0x7c <__bad_interrupt>
  2c:	0c 94 3e 00 	jmp	0x7c	; 0x7c <__bad_interrupt>
  30:	0c 94 3e 00 	jmp	0x7c	; 0x7c <__bad_interrupt>
  34:	0c 94 3e 00 	jmp	0x7c	; 0x7c <__bad_interrupt>
  38:	0c 94 3e 00 	jmp	0x7c	; 0x7c <__bad_interrupt>
  3c:	0c 94 3e 00 	jmp	0x7c	; 0x7c <__bad_interrupt>
  40:	0c 94 3e 00 	jmp	0x7c	; 0x7c <__bad_interrupt>
  44:	0c 94 3e 00 	jmp	0x7c	; 0x7c <__bad_interrupt>
  48:	0c 94 3e 00 	jmp	0x7c	; 0x7c <__bad_interrupt>
  4c:	0c 94 3e 00 	jmp	0x7c	; 0x7c <__bad_interrupt>
  50:	0c 94 3e 00 	jmp	0x7c	; 0x7c <__bad_interrupt>
  54:	0c 94 3e 00 	jmp	0x7c	; 0x7c <__bad_interrupt>
  58:	0c 94 3e 00 	jmp	0x7c	; 0x7c <__bad_interrupt>
  5c:	0c 94 3e 00 	jmp	0x7c	; 0x7c <__bad_interrupt>
  60:	0c 94 3e 00 	jmp	0x7c	; 0x7c <__bad_interrupt>
  64:	0c 94 3e 00 	jmp	0x7c	; 0x7c <__bad_interrupt>

00000068 <__ctors_end>:
  68:	11 24       	eor	r1, r1
  6a:	1f be       	out	0x3f, r1	; 63
  6c:	cf ef       	ldi	r28, 0xFF	; 255
  6e:	d8 e0       	ldi	r29, 0x08	; 8
  70:	de bf       	out	0x3e, r29	; 62
  72:	cd bf       	out	0x3d, r28	; 61
  74:	0e 94 61 00 	call	0xc2	; 0xc2 <main>
  78:	0c 94 66 00 	jmp	0xcc	; 0xcc <_exit>

0000007c <__bad_interrupt>:
  7c:	0c 94 00 00 	jmp	0	; 0x0 <__vectors>

00000080 <__vector_1>:
#include <avr/io.h>
#define F_CPU 16000000UL
#include <util/delay.h>
#include <avr/interrupt.h>
ISR(INT0_vect)
{
  80:	1f 92       	push	r1
  82:	0f 92       	push	r0
  84:	0f b6       	in	r0, 0x3f	; 63
  86:	0f 92       	push	r0
  88:	11 24       	eor	r1, r1
  8a:	8f 93       	push	r24
	if(PIND & 0x04) PORTB = 0x00; // LED 끄기
  8c:	4a 9b       	sbis	0x09, 2	; 9
  8e:	02 c0       	rjmp	.+4      	; 0x94 <__vector_1+0x14>
  90:	15 b8       	out	0x05, r1	; 5
  92:	02 c0       	rjmp	.+4      	; 0x98 <__vector_1+0x18>
	else PORTB = 0x20; // LED 켜기
  94:	80 e2       	ldi	r24, 0x20	; 32
  96:	85 b9       	out	0x05, r24	; 5
}
  98:	8f 91       	pop	r24
  9a:	0f 90       	pop	r0
  9c:	0f be       	out	0x3f, r0	; 63
  9e:	0f 90       	pop	r0
  a0:	1f 90       	pop	r1
  a2:	18 95       	reti

000000a4 <INIT_PORT>:
void INIT_PORT(void)
{
	DDRB = 0x20; // PB5(디지털 13번 핀) 출력으로 설정
  a4:	80 e2       	ldi	r24, 0x20	; 32
  a6:	84 b9       	out	0x04, r24	; 4
	PORTB = 0x00; // LED는 꺼진 상태에서 시작
  a8:	15 b8       	out	0x05, r1	; 5
	DDRD = 0x00; // 버튼 입력
  aa:	1a b8       	out	0x0a, r1	; 10
	PORTD = 0x04; // PD2(디지털 2번 핀) 풀업 저항 사용
  ac:	84 e0       	ldi	r24, 0x04	; 4
  ae:	8b b9       	out	0x0b, r24	; 11
  b0:	08 95       	ret

000000b2 <INIT_INT0>:
}
void INIT_INT0(void)
{
	EICRA |= (1 << INT0); // INT0 인터럽트 활성화
  b2:	e9 e6       	ldi	r30, 0x69	; 105
  b4:	f0 e0       	ldi	r31, 0x00	; 0
  b6:	80 81       	ld	r24, Z
  b8:	81 60       	ori	r24, 0x01	; 1
  ba:	80 83       	st	Z, r24
	EIMSK |= (1 << ISC00); // 버튼 상태 변화 감지
  bc:	e8 9a       	sbi	0x1d, 0	; 29
	sei(); // 전역적으로 인터럽트 허용
  be:	78 94       	sei
  c0:	08 95       	ret

000000c2 <main>:
}
int main(void)
{
	INIT_PORT(); // 포트 설정
  c2:	0e 94 52 00 	call	0xa4	; 0xa4 <INIT_PORT>
	INIT_INT0(); // INT0 인터럽트 설정
  c6:	0e 94 59 00 	call	0xb2	; 0xb2 <INIT_INT0>
  ca:	ff cf       	rjmp	.-2      	; 0xca <main+0x8>

000000cc <_exit>:
  cc:	f8 94       	cli

000000ce <__stop_program>:
  ce:	ff cf       	rjmp	.-2      	; 0xce <__stop_program>
